target datalayout = "e-m:e-p270:32:32-p271:32:32-p272:64:64-i64:64-i128:128-f80:128-n8:16:32:64-S128"
target triple = "x86_64-pc-linux-gnu"

%struct.H5D_earray_ctx_t = type { i64, i64 }

@H5D_init_g = external global i8, align 1
@H5_libterm_g = external global i8, align 1

; Function Attrs: nounwind uwtable
define internal i32 @H5D__earray_encode(ptr noundef %0, ptr noundef %1, i64 noundef %2, ptr noundef %3) #0 {
  %5 = alloca ptr, align 8
  %6 = alloca ptr, align 8
  %7 = alloca i64, align 8
  %8 = alloca ptr, align 8
  %9 = alloca ptr, align 8
  %10 = alloca ptr, align 8
  store ptr %0, ptr %5, align 8, !tbaa !80
  store ptr %1, ptr %6, align 8, !tbaa !80
  store i64 %2, ptr %7, align 8, !tbaa !10
  store ptr %3, ptr %8, align 8, !tbaa !80
  call void @llvm.lifetime.start.p0(i64 8, ptr %9) #8
  %11 = load ptr, ptr %8, align 8, !tbaa !80
  store ptr %11, ptr %9, align 8, !tbaa !107
  call void @llvm.lifetime.start.p0(i64 8, ptr %10) #8
  %12 = load ptr, ptr %6, align 8, !tbaa !80
  store ptr %12, ptr %10, align 8, !tbaa !98
  %13 = load i8, ptr @H5D_init_g, align 1, !tbaa !14, !range !16, !noundef !17
  %14 = trunc i8 %13 to i1
  br i1 %14, label %19, label %15

15:                                               ; preds = %4
  %16 = load i8, ptr @H5_libterm_g, align 1, !tbaa !14, !range !16, !noundef !17
  %17 = trunc i8 %16 to i1
  %18 = xor i1 %17, true
  br label %19

19:                                               ; preds = %15, %4
  %20 = phi i1 [ true, %4 ], [ %18, %15 ]
  %21 = xor i1 %20, true
  %22 = xor i1 %21, true
  %23 = zext i1 %22 to i32
  %24 = sext i32 %23 to i64
  %25 = call i64 @llvm.expect.i64(i64 %24, i64 1)
  %26 = icmp ne i64 %25, 0
  br i1 %26, label %27, label %42

27:                                               ; preds = %19
  br label %28

28:                                               ; preds = %31, %27
  %29 = load i64, ptr %7, align 8, !tbaa !10
  %30 = icmp ne i64 %29, 0
  br i1 %30, label %31, label %41

31:                                               ; preds = %28
  %32 = load ptr, ptr %9, align 8, !tbaa !107
  %33 = getelementptr inbounds nuw %struct.H5D_earray_ctx_t, ptr %32, i32 0, i32 0
  %34 = load i64, ptr %33, align 8, !tbaa !109
  %35 = load ptr, ptr %10, align 8, !tbaa !98
  %36 = load i64, ptr %35, align 8, !tbaa !10
  call void @H5F_addr_encode_len(i64 noundef %34, ptr noundef %5, i64 noundef %36)
  %37 = load ptr, ptr %10, align 8, !tbaa !98
  %38 = getelementptr inbounds nuw i64, ptr %37, i32 1
  store ptr %38, ptr %10, align 8, !tbaa !98
  %39 = load i64, ptr %7, align 8, !tbaa !10
  %40 = add i64 %39, -1
  store i64 %40, ptr %7, align 8, !tbaa !10
  br label %28, !llvm.loop !112

41:                                               ; preds = %28
  br label %42

42:                                               ; preds = %41, %19
  call void @llvm.lifetime.end.p0(i64 8, ptr %10) #8
  call void @llvm.lifetime.end.p0(i64 8, ptr %9) #8
  ret i32 0
}