; Function Attrs: nounwind uwtable
define internal noundef i32 @H5D__earray_encode(ptr noundef %0, ptr noundef readonly captures(none) %1, i64 noundef %2, ptr noundef readonly captures(none) %3) #0 {
  %5 = alloca ptr, align 8
  store ptr %0, ptr %5, align 8, !tbaa !88
  %6 = load i8, ptr @H5D_init_g, align 1, !tbaa !3, !range !7, !noundef !8
  %7 = trunc nuw i8 %6 to i1
  %8 = load i8, ptr @H5_libterm_g, align 1, !range !7
  %9 = trunc nuw i8 %8 to i1
  %10 = xor i1 %9, true
  %11 = select i1 %7, i1 true, i1 %10
  %12 = icmp ne i64 %2, 0
  %or.cond = and i1 %12, %11
  br i1 %or.cond, label %.preheader, label %.loopexit, !prof !89

.preheader:                                       ; preds = %4, %.preheader
  %.08 = phi i64 [ %16, %.preheader ], [ %2, %4 ]
  %.0 = phi ptr [ %15, %.preheader ], [ %1, %4 ]
  %13 = load i64, ptr %3, align 8, !tbaa !85
  %14 = load i64, ptr %.0, align 8, !tbaa !10
  call void @H5F_addr_encode_len(i64 noundef %13, ptr noundef nonnull %5, i64 noundef %14) #11
  %15 = getelementptr inbounds nuw i8, ptr %.0, i64 8
  %16 = add i64 %.08, -1
  %.old1.not = icmp eq i64 %16, 0
  br i1 %.old1.not, label %.loopexit, label %.preheader

.loopexit:                                        ; preds = %.preheader, %4
  ret i32 0
}